X.509 Certificate Information:
        Version: 3
        Serial Number (hex): 626b8bf42e6d3905
        Validity:
                Not Before: Fri Apr 29 06:55:51 UTC 2022
                Not After: Fri Aug 14 06:56:01 UTC 2043
        Subject: CN=0a95cc90-f7ad-4d8b-a449-f1632dceb595
        Subject Public Key Algorithm: RSA
        Algorithm Security Level: Medium (2048 bits)
                Modulus (bits 2048):
                        00:d9:ec:da:c8:55:42:8c:2c:c1:f0:d3:87:3e:62:81
                        94:4f:b3:92:49:7a:30:71:ec:1f:b0:87:38:62:9e:14
                        f5:fa:da:84:17:26:cc:38:e7:e6:e1:27:de:ad:cb:18
                        8f:2d:a6:29:41:f3:d0:43:59:a8:7b:31:92:92:87:69
                        73:d7:b5:23:ee:d8:b8:b2:1d:45:69:9b:40:f5:81:f6
                        57:10:4f:56:73:97:1f:6e:9b:be:dc:55:a4:96:e9:d2
                        fa:05:d1:5d:a8:50:1a:8e:c2:83:87:c3:b6:f2:06:8f
                        dd:bb:f3:48:a7:62:90:9e:ca:3f:5a:26:e8:8c:18:d8
                        4f:d6:88:88:3b:74:9b:6c:9b:b7:15:83:f7:a0:f3:6b
                        6f:4b:d7:15:fc:d7:5d:b1:02:37:ee:c6:f6:9c:03:f2
                        d1:11:71:83:0b:a9:ca:11:71:fe:28:36:f2:83:0c:5b
                        e2:8c:77:a8:38:6c:16:22:6c:a9:10:b7:cb:13:75:53
                        21:01:5d:cb:a1:fa:b7:bd:8e:f1:27:02:bb:7a:b2:13
                        55:18:9d:14:ce:a2:ef:75:96:11:21:56:10:dd:09:3c
                        33:fa:97:23:97:44:17:69:a5:a0:86:3a:96:26:fd:c6
                        bc:9b:49:cd:0d:72:7a:ce:6b:55:74:91:99:cc:e3:e3
                        91
                Exponent (bits 24):
                        01:00:01
        Extensions:
                Basic Constraints (critical):
                        Certificate Authority (CA): FALSE
                Key Purpose (not critical):
                        TLS WWW Client.
                        TLS WWW Server.
                Key Usage (critical):
                        Digital signature.
                        Key encipherment.
                Subject Key Identifier (not critical):
                        39dcfea4821a282bce5c9bbe2d814d432f8dcce7
Other Information:
        Public Key ID:
                sha1:39dcfea4821a282bce5c9bbe2d814d432f8dcce7
                sha256:d88826348e9afe78d23b457ebfd66482562f297c28e42dea3d47669dfbf4d7b7
        Public Key PIN:
                pin-sha256:2IgmNI6a/njSO0V+v9ZkglYvKXwo5C3qPUdmnfv017c=
        Public key's random art:
                +--[ RSA 2048]----+
                |                 |
                |   .             |
                |  + +            |
                |   B + . o       |
                |  + =   S .      |
                | . + E   o       |
                |. ..o  .  . .    |
                |+o..+.. .  +     |
                |++.=+o   .. .    |
                +-----------------+

-----BEGIN CERTIFICATE-----
MIIDPzCCAiegAwIBAgIIYmuL9C5tOQUwDQYJKoZIhvcNAQELBQAwLzEtMCsGA1UE
AxMkMGE5NWNjOTAtZjdhZC00ZDhiLWE0NDktZjE2MzJkY2ViNTk1MB4XDTIyMDQy
OTA2NTU1MVoXDTQzMDgxNDA2NTYwMVowLzEtMCsGA1UEAxMkMGE5NWNjOTAtZjdh
ZC00ZDhiLWE0NDktZjE2MzJkY2ViNTk1MIIBIjANBgkqhkiG9w0BAQEFAAOCAQ8A
MIIBCgKCAQEA2ezayFVCjCzB8NOHPmKBlE+zkkl6MHHsH7CHOGKeFPX62oQXJsw4
5+bhJ96tyxiPLaYpQfPQQ1moezGSkodpc9e1I+7YuLIdRWmbQPWB9lcQT1Zzlx9u
m77cVaSW6dL6BdFdqFAajsKDh8O28gaP3bvzSKdikJ7KP1om6IwY2E/WiIg7dJts
m7cVg/eg82tvS9cV/NddsQI37sb2nAPy0RFxgwupyhFx/ig28oMMW+KMd6g4bBYi
bKkQt8sTdVMhAV3Lofq3vY7xJwK7erITVRidFM6i73WWESFWEN0JPDP6lyOXRBdp
paCGOpYm/ca8m0nNDXJ6zmtVdJGZzOPjkQIDAQABo18wXTAMBgNVHRMBAf8EAjAA
MB0GA1UdJQQWMBQGCCsGAQUFBwMCBggrBgEFBQcDATAPBgNVHQ8BAf8EBQMDB6AA
MB0GA1UdDgQWBBQ53P6kghooK85cm74tgU1DL43M5zANBgkqhkiG9w0BAQsFAAOC
AQEAj74wMKZDobzbu8C8lmleuRCWqDPYm4ZKNiV6gLqltVRINCLM2K6Sf9LbORLh
O33ASarDG2iCj1RK05jLv00A/VkDZ/OTilBCrQp5iXsuHcD3fKN/NOYZ4N4E0jDs
mOyIKerNHYuVcrBKZV5mJv/5AbXtWOvJQYouu7fV3DSHBNVG2mQ4AwhATsqouhCF
Whgo1Beq9NMopuiTVZJTcb89wjmLIh8ckLeOZ4TWP5gFz7xIsH7WZmAKSYh2SelZ
5/Qq/eYIZqoWoiOq9pWmXHAcElgbc2dQZAqDw10bKIVrpD1wUkuXF2Z3hphvsziK
IM3xQ+JY2fqNJ41RFhEZ01EfVg==
-----END CERTIFICATE-----
